target datalayout = "e-m:e-p270:32:32-p271:32:32-p272:64:64-i64:64-i128:128-f80:128-n8:16:32:64-S128"
target triple = "x86_64-pc-linux-gnu"

%struct._header_field_t = type { ptr, ptr }

@.str.501 = private unnamed_addr constant [27 x i8] c"Header name can't be empty\00", align 1
@.str.502 = private unnamed_addr constant [31 x i8] c"Header name can't contain '%c'\00", align 1

; Function Attrs: null_pointer_is_valid sspstrong uwtable
define internal zeroext i1 @header_fields_update_cb(ptr noundef %0, ptr noundef %1) #0 {
  %3 = alloca i1, align 1
  %4 = alloca ptr, align 8
  %5 = alloca ptr, align 8
  %6 = alloca ptr, align 8
  %7 = alloca i8, align 1
  %8 = alloca i32, align 4
  store ptr %0, ptr %4, align 8
  store ptr %1, ptr %5, align 8
  call void @llvm.lifetime.start.p0(i64 8, ptr %6) #19
  %9 = load ptr, ptr %4, align 8
  store ptr %9, ptr %6, align 8
  call void @llvm.lifetime.start.p0(i64 1, ptr %7) #19
  %10 = load ptr, ptr %6, align 8
  %11 = getelementptr inbounds nuw %struct._header_field_t, ptr %10, i32 0, i32 0
  %12 = load ptr, ptr %11, align 8
  %13 = icmp eq ptr %12, null
  br i1 %13, label %14, label %17

14:                                               ; preds = %2
  %15 = call noalias ptr @g_strdup(ptr noundef @.str.501)
  %16 = load ptr, ptr %5, align 8
  store ptr %15, ptr %16, align 8
  store i1 false, ptr %3, align 1
  store i32 1, ptr %8, align 4
  br label %47

17:                                               ; preds = %2
  %18 = load ptr, ptr %6, align 8
  %19 = getelementptr inbounds nuw %struct._header_field_t, ptr %18, i32 0, i32 0
  %20 = load ptr, ptr %19, align 8
  %21 = call ptr @g_strchug(ptr noundef %20)
  %22 = call ptr @g_strchomp(ptr noundef %21)
  %23 = load ptr, ptr %6, align 8
  %24 = getelementptr inbounds nuw %struct._header_field_t, ptr %23, i32 0, i32 0
  %25 = load ptr, ptr %24, align 8
  %26 = getelementptr i8, ptr %25, i64 0
  %27 = load i8, ptr %26, align 1
  %28 = sext i8 %27 to i32
  %29 = icmp eq i32 %28, 0
  br i1 %29, label %30, label %33

30:                                               ; preds = %17
  %31 = call noalias ptr @g_strdup(ptr noundef @.str.501)
  %32 = load ptr, ptr %5, align 8
  store ptr %31, ptr %32, align 8
  store i1 false, ptr %3, align 1
  store i32 1, ptr %8, align 4
  br label %47

33:                                               ; preds = %17
  %34 = load ptr, ptr %6, align 8
  %35 = getelementptr inbounds nuw %struct._header_field_t, ptr %34, i32 0, i32 0
  %36 = load ptr, ptr %35, align 8
  %37 = call zeroext i8 @proto_check_field_name(ptr noundef %36)
  store i8 %37, ptr %7, align 1
  %38 = load i8, ptr %7, align 1
  %39 = icmp ne i8 %38, 0
  br i1 %39, label %40, label %45

40:                                               ; preds = %33
  %41 = load i8, ptr %7, align 1
  %42 = sext i8 %41 to i32
  %43 = call noalias ptr (ptr, ptr, ...) @wmem_strdup_printf(ptr noundef null, ptr noundef @.str.502, i32 noundef %42)
  %44 = load ptr, ptr %5, align 8
  store ptr %43, ptr %44, align 8
  store i1 false, ptr %3, align 1
  store i32 1, ptr %8, align 4
  br label %47

45:                                               ; preds = %33
  %46 = load ptr, ptr %5, align 8
  store ptr null, ptr %46, align 8
  store i1 true, ptr %3, align 1
  store i32 1, ptr %8, align 4
  br label %47

47:                                               ; preds = %45, %40, %30, %14
  call void @llvm.lifetime.end.p0(i64 1, ptr %7) #19
  call void @llvm.lifetime.end.p0(i64 8, ptr %6) #19
  %48 = load i1, ptr %3, align 1
  ret i1 %48
}